; Function Attrs: nounwind uwtable
define internal ptr @calcsize(ptr noundef readonly captures(none) %0, ptr noundef %1) #0 {
  %3 = alloca ptr, align 8
  call void @llvm.lifetime.start.p0(i64 8, ptr nonnull %3) #7
  store ptr null, ptr %3, align 8, !tbaa !19
  %4 = getelementptr i8, ptr %0, i64 32
  %.val = load ptr, ptr %4, align 8, !tbaa !3
  %5 = call fastcc i32 @cache_struct_converter(ptr %.val, ptr noundef %1, ptr noundef %3)
  %.not = icmp eq i32 %5, 0
  %.pre = load ptr, ptr %3, align 8, !tbaa !19
  br i1 %.not, label %13, label %6

6:                                                ; preds = %2
  %7 = getelementptr i8, ptr %.pre, i64 16
  %.val6 = load i64, ptr %7, align 8, !tbaa !20
  %8 = icmp eq i64 %.val6, -1
  br i1 %8, label %9, label %11

9:                                                ; preds = %6
  %10 = tail call ptr @PyErr_Occurred() #7
  %.not5 = icmp eq ptr %10, null
  br i1 %.not5, label %11, label %.thread

11:                                               ; preds = %9, %6
  %12 = tail call ptr @PyLong_FromSsize_t(i64 noundef %.val6) #7
  br label %.thread

13:                                               ; preds = %2
  %.not.i = icmp eq ptr %.pre, null
  br i1 %.not.i, label %Py_XDECREF.exit, label %.thread

.thread:                                          ; preds = %11, %9, %13
  %.09 = phi ptr [ null, %13 ], [ %12, %11 ], [ null, %9 ]
  %14 = load i32, ptr %.pre, align 8, !tbaa !18
  %.not.i.i = icmp sgt i32 %14, -1
  br i1 %.not.i.i, label %15, label %Py_XDECREF.exit

15:                                               ; preds = %.thread
  %16 = add nsw i32 %14, -1
  store i32 %16, ptr %.pre, align 8, !tbaa !18
  %17 = icmp eq i32 %16, 0
  br i1 %17, label %18, label %Py_XDECREF.exit

18:                                               ; preds = %15
  tail call void @_Py_Dealloc(ptr noundef nonnull %.pre) #7
  br label %Py_XDECREF.exit

Py_XDECREF.exit:                                  ; preds = %13, %.thread, %15, %18
  %.010 = phi ptr [ null, %13 ], [ %.09, %.thread ], [ %.09, %15 ], [ %.09, %18 ]
  call void @llvm.lifetime.end.p0(i64 8, ptr nonnull %3) #7
  ret ptr %.010
}